; Function Attrs: nounwind uwtable
define ptr @l_Std_DHashMap_Internal_AssocList_foldlM___at_Lean_Linter_UnusedVariables_unusedVariables___elambda__1___spec__13(ptr noundef %0, ptr noundef %1) local_unnamed_addr #1 {
  br label %3

3:                                                ; preds = %lean_dec.exit, %2
  %.011 = phi ptr [ %1, %2 ], [ %26, %lean_dec.exit ]
  %.0 = phi ptr [ %0, %2 ], [ %42, %lean_dec.exit ]
  %4 = ptrtoint ptr %.011 to i64
  %5 = and i64 %4, 1
  %.not.i13 = icmp eq i64 %5, 0
  br i1 %.not.i13, label %9, label %6

6:                                                ; preds = %3
  %7 = lshr i64 %4, 1
  %8 = trunc i64 %7 to i32
  br label %lean_obj_tag.exit

9:                                                ; preds = %3
  %10 = getelementptr i8, ptr %.011, i64 4
  %.val.i = load i32, ptr %10, align 4
  %11 = lshr i32 %.val.i, 24
  br label %lean_obj_tag.exit

lean_obj_tag.exit:                                ; preds = %6, %9
  %.0.i = phi i32 [ %8, %6 ], [ %11, %9 ]
  %12 = icmp eq i32 %.0.i, 0
  br i1 %12, label %13, label %14

13:                                               ; preds = %lean_obj_tag.exit
  ret ptr %.0

14:                                               ; preds = %lean_obj_tag.exit
  %15 = getelementptr inbounds nuw i8, ptr %.011, i64 8
  %16 = load ptr, ptr %15, align 8, !tbaa !4
  %17 = ptrtoint ptr %16 to i64
  %18 = and i64 %17, 1
  %.not = icmp eq i64 %18, 0
  br i1 %.not, label %19, label %lean_inc.exit12

19:                                               ; preds = %14
  %.val.i14 = load i32, ptr %16, align 4, !tbaa !8
  %20 = icmp sgt i32 %.val.i14, 0
  br i1 %20, label %21, label %23, !prof !11

21:                                               ; preds = %19
  %22 = add nuw i32 %.val.i14, 1
  store i32 %22, ptr %16, align 4, !tbaa !8
  br label %lean_inc.exit12

23:                                               ; preds = %19
  %.not.i15 = icmp eq i32 %.val.i14, 0
  br i1 %.not.i15, label %lean_inc.exit12, label %24

24:                                               ; preds = %23
  tail call void @lean_inc_ref_cold(ptr noundef nonnull %16) #7
  br label %lean_inc.exit12

lean_inc.exit12:                                  ; preds = %24, %23, %21, %14
  %25 = getelementptr inbounds nuw i8, ptr %.011, i64 24
  %26 = load ptr, ptr %25, align 8, !tbaa !4
  %27 = ptrtoint ptr %26 to i64
  %28 = and i64 %27, 1
  %.not19 = icmp eq i64 %28, 0
  br i1 %.not19, label %29, label %lean_inc.exit

29:                                               ; preds = %lean_inc.exit12
  %.val.i16 = load i32, ptr %26, align 4, !tbaa !8
  %30 = icmp sgt i32 %.val.i16, 0
  br i1 %30, label %31, label %33, !prof !11

31:                                               ; preds = %29
  %32 = add nuw i32 %.val.i16, 1
  store i32 %32, ptr %26, align 4, !tbaa !8
  br label %lean_inc.exit

33:                                               ; preds = %29
  %.not.i17 = icmp eq i32 %.val.i16, 0
  br i1 %.not.i17, label %lean_inc.exit, label %34

34:                                               ; preds = %33
  tail call void @lean_inc_ref_cold(ptr noundef nonnull %26) #7
  br label %lean_inc.exit

lean_inc.exit:                                    ; preds = %34, %33, %31, %lean_inc.exit12
  br i1 %.not.i13, label %35, label %lean_dec.exit

35:                                               ; preds = %lean_inc.exit
  %36 = load i32, ptr %.011, align 4, !tbaa !8
  %37 = icmp sgt i32 %36, 1
  br i1 %37, label %38, label %40, !prof !11

38:                                               ; preds = %35
  %39 = add nsw i32 %36, -1
  store i32 %39, ptr %.011, align 4, !tbaa !8
  br label %lean_dec.exit

40:                                               ; preds = %35
  %.not.i = icmp eq i32 %36, 0
  br i1 %.not.i, label %lean_dec.exit, label %41

41:                                               ; preds = %40
  tail call void @lean_dec_ref_cold(ptr noundef nonnull %.011) #7
  br label %lean_dec.exit

lean_dec.exit:                                    ; preds = %41, %40, %38, %lean_inc.exit
  %42 = tail call ptr @lean_array_push(ptr noundef %.0, ptr noundef %16) #7
  br label %3
}